target datalayout = "e-m:e-p270:32:32-p271:32:32-p272:64:64-i64:64-i128:128-f80:128-n8:16:32:64-S128"
target triple = "x86_64-pc-linux-gnu"

%"struct.ZXing::SymbologyIdentifier" = type { i8, i8, i8, i8 }
%"class.ZXing::ByteArray" = type { %"class.std::vector" }
%"class.std::vector" = type { %"struct.std::_Vector_base" }
%"struct.std::_Vector_base" = type { %"struct.std::_Vector_base<unsigned char, std::allocator<unsigned char>>::_Vector_impl" }
%"struct.std::_Vector_base<unsigned char, std::allocator<unsigned char>>::_Vector_impl" = type { %"struct.std::_Vector_base<unsigned char, std::allocator<unsigned char>>::_Vector_impl_data" }
%"struct.std::_Vector_base<unsigned char, std::allocator<unsigned char>>::_Vector_impl_data" = type { ptr, ptr, ptr }
%"class.ZXing::Result" = type <{ %"class.ZXing::Content", %"class.ZXing::Error", %"class.ZXing::Quadrilateral", %"class.ZXing::ReaderOptions", [4 x i8], %"struct.ZXing::StructuredAppendInfo", i32, [4 x i8], [4 x i8], i32, i8, i8, i8, [5 x i8] }>
%"class.ZXing::Content" = type <{ %"class.ZXing::ByteArray", %"class.std::vector.3", %"struct.ZXing::SymbologyIdentifier", i8, i8, [2 x i8] }>
%"class.std::vector.3" = type { %"struct.std::_Vector_base.4" }
%"struct.std::_Vector_base.4" = type { %"struct.std::_Vector_base<ZXing::Content::Encoding, std::allocator<ZXing::Content::Encoding>>::_Vector_impl" }
%"struct.std::_Vector_base<ZXing::Content::Encoding, std::allocator<ZXing::Content::Encoding>>::_Vector_impl" = type { %"struct.std::_Vector_base<ZXing::Content::Encoding, std::allocator<ZXing::Content::Encoding>>::_Vector_impl_data" }
%"struct.std::_Vector_base<ZXing::Content::Encoding, std::allocator<ZXing::Content::Encoding>>::_Vector_impl_data" = type { ptr, ptr, ptr }
%"class.ZXing::Error" = type <{ %"class.std::__cxx11::basic_string", ptr, i16, i8, [5 x i8] }>
%"class.std::__cxx11::basic_string" = type { %"struct.std::__cxx11::basic_string<char>::_Alloc_hider", i64, %union.anon }
%"struct.std::__cxx11::basic_string<char>::_Alloc_hider" = type { ptr }
%union.anon = type { i64, [8 x i8] }
%"class.ZXing::Quadrilateral" = type { %"struct.std::array" }
%"struct.std::array" = type { [4 x %"struct.ZXing::PointT"] }
%"struct.ZXing::PointT" = type { i32, i32 }
%"class.ZXing::ReaderOptions" = type { i32, i8, i8, i16, %"class.ZXing::Flags" }
%"class.ZXing::Flags" = type { i32 }
%"struct.ZXing::StructuredAppendInfo" = type { i32, i32, %"class.std::__cxx11::basic_string" }

; Function Attrs: mustprogress nounwind optsize uwtable
define linkonce_odr noundef zeroext i8 @_ZNK5ZXing13ReaderOptions12characterSetEv(ptr noundef nonnull align 4 dereferenceable(12) %0) #5 comdat align 2 {
  %2 = alloca ptr, align 8
  store ptr %0, ptr %2, align 8, !tbaa !60
  %3 = load ptr, ptr %2, align 8
  %4 = load i32, ptr %3, align 4
  %5 = lshr i32 %4, 24
  %6 = and i32 %5, 63
  %7 = trunc i32 %6 to i8
  ret i8 %7
}

; Function Attrs: mustprogress nounwind optsize uwtable
define noundef nonnull align 8 dereferenceable(211) ptr @_ZN5ZXing6Result16setReaderOptionsERKNS_13ReaderOptionsE(ptr noundef nonnull align 8 dereferenceable(211) %0, ptr noundef nonnull align 4 dereferenceable(12) %1) #5 align 2 {
  %3 = alloca ptr, align 8
  %4 = alloca ptr, align 8
  store ptr %0, ptr %3, align 8, !tbaa !3
  store ptr %1, ptr %4, align 8, !tbaa !60
  %5 = load ptr, ptr %3, align 8
  %6 = load ptr, ptr %4, align 8, !tbaa !60
  %7 = call noundef zeroext i8 @_ZNK5ZXing13ReaderOptions12characterSetEv(ptr noundef nonnull align 4 dereferenceable(12) %6) #21
  %8 = icmp ne i8 %7, 0
  br i1 %8, label %9, label %14

9:                                                ; preds = %2
  %10 = load ptr, ptr %4, align 8, !tbaa !60
  %11 = call noundef zeroext i8 @_ZNK5ZXing13ReaderOptions12characterSetEv(ptr noundef nonnull align 4 dereferenceable(12) %10) #21
  %12 = getelementptr inbounds nuw %"class.ZXing::Result", ptr %5, i32 0, i32 0
  %13 = getelementptr inbounds nuw %"class.ZXing::Content", ptr %12, i32 0, i32 3
  store i8 %11, ptr %13, align 4, !tbaa !106
  br label %14

14:                                               ; preds = %9, %2
  %15 = load ptr, ptr %4, align 8, !tbaa !60
  %16 = getelementptr inbounds nuw %"class.ZXing::Result", ptr %5, i32 0, i32 3
  call void @llvm.memcpy.p0.p0.i64(ptr align 8 %16, ptr align 4 %15, i64 12, i1 false), !tbaa.struct !107
  ret ptr %5
}