; Function Attrs: mustprogress nofree norecurse nosync nounwind optsize willreturn memory(argmem: readwrite) uwtable
define noundef nonnull align 8 dereferenceable(211) ptr @_ZN5ZXing6Result16setReaderOptionsERKNS_13ReaderOptionsE(ptr noundef nonnull returned writeonly align 8 captures(ret: address, provenance) dereferenceable(211) initializes((136, 148)) %0, ptr noundef nonnull readonly align 4 captures(none) dereferenceable(12) %1) local_unnamed_addr #10 align 2 {
  %3 = load i32, ptr %1, align 4
  %4 = lshr i32 %3, 24
  %5 = trunc nuw i32 %4 to i8
  %6 = and i8 %5, 63
  %.not = icmp eq i8 %6, 0
  br i1 %.not, label %9, label %7

7:                                                ; preds = %2
  %8 = getelementptr inbounds nuw i8, ptr %0, i64 52
  store i8 %6, ptr %8, align 4, !tbaa !81
  br label %9

9:                                                ; preds = %7, %2
  %10 = getelementptr inbounds nuw i8, ptr %0, i64 136
  tail call void @llvm.memcpy.p0.p0.i64(ptr noundef nonnull align 8 dereferenceable(12) %10, ptr noundef nonnull align 4 dereferenceable(12) %1, i64 12, i1 false), !tbaa.struct !82
  ret ptr %0
}